; Function Attrs: mustprogress uwtable
define void @cvSaveMemStoragePos(ptr noundef readonly %0, ptr noundef writeonly %1) local_unnamed_addr #0 personality ptr @__gxx_personality_v0 {
  %3 = alloca %"class.std::__cxx11::basic_string", align 8
  %4 = alloca %"class.std::allocator", align 1
  %5 = icmp ne ptr %0, null
  %6 = icmp ne ptr %1, null
  %or.cond = and i1 %5, %6
  br i1 %or.cond, label %17, label %7

7:                                                ; preds = %2
  call void @llvm.lifetime.start.p0(i64 32, ptr nonnull %3) #11
  call void @llvm.lifetime.start.p0(i64 1, ptr nonnull %4) #11
  call void @_ZNSt7__cxx1112basic_stringIcSt11char_traitsIcESaIcEEC2EPKcRKS3_(ptr noundef nonnull align 8 dereferenceable(32) %3, ptr noundef nonnull @.str, ptr noundef nonnull align 1 dereferenceable(1) %4)
  invoke void @_ZN2cv5errorEiRKNSt7__cxx1112basic_stringIcSt11char_traitsIcESaIcEEEPKcS9_i(i32 noundef -27, ptr noundef nonnull align 8 dereferenceable(32) %3, ptr noundef nonnull @__func__.cvSaveMemStoragePos, ptr noundef nonnull @.str.1, i32 noundef 276) #12
          to label %8 unwind label %9

8:                                                ; preds = %7
  unreachable

9:                                                ; preds = %7
  %10 = landingpad { ptr, i32 }
          cleanup
  %11 = load ptr, ptr %3, align 8, !tbaa !3
  %12 = getelementptr inbounds nuw i8, ptr %3, i64 16
  %13 = icmp eq ptr %11, %12
  br i1 %13, label %_ZNKSt7__cxx1112basic_stringIcSt11char_traitsIcESaIcEE11_M_is_localEv.exit.thread.i.i, label %_ZNKSt7__cxx1112basic_stringIcSt11char_traitsIcESaIcEE11_M_is_localEv.exit.i.i

_ZNKSt7__cxx1112basic_stringIcSt11char_traitsIcESaIcEE11_M_is_localEv.exit.thread.i.i: ; preds = %9
  %14 = getelementptr inbounds nuw i8, ptr %3, i64 8
  %15 = load i64, ptr %14, align 8, !tbaa !11
  %16 = icmp ult i64 %15, 16
  call void @llvm.assume(i1 %16)
  br label %_ZNSt7__cxx1112basic_stringIcSt11char_traitsIcESaIcEED2Ev.exit

_ZNKSt7__cxx1112basic_stringIcSt11char_traitsIcESaIcEE11_M_is_localEv.exit.i.i: ; preds = %9
  call void @_ZdlPv(ptr noundef %11) #13
  br label %_ZNSt7__cxx1112basic_stringIcSt11char_traitsIcESaIcEED2Ev.exit

_ZNSt7__cxx1112basic_stringIcSt11char_traitsIcESaIcEED2Ev.exit: ; preds = %_ZNKSt7__cxx1112basic_stringIcSt11char_traitsIcESaIcEE11_M_is_localEv.exit.i.i, %_ZNKSt7__cxx1112basic_stringIcSt11char_traitsIcESaIcEE11_M_is_localEv.exit.thread.i.i
  call void @llvm.lifetime.end.p0(i64 1, ptr nonnull %4) #11
  call void @llvm.lifetime.end.p0(i64 32, ptr nonnull %3) #11
  resume { ptr, i32 } %10

17:                                               ; preds = %2
  %18 = getelementptr inbounds nuw i8, ptr %0, i64 16
  %19 = load ptr, ptr %18, align 8, !tbaa !21
  store ptr %19, ptr %1, align 8, !tbaa !30
  %20 = getelementptr inbounds nuw i8, ptr %0, i64 36
  %21 = load i32, ptr %20, align 4, !tbaa !27
  %22 = getelementptr inbounds nuw i8, ptr %1, i64 8
  store i32 %21, ptr %22, align 8, !tbaa !32
  ret void
}